Certificate:
    Data:
        Version: 3 (0x2)
        Serial Number:
            66:55:44:33:22:11:ff:ee:dd:cc:bb:aa:4e:75:4b:ed:da:00:00:00
        Signature Algorithm: sha256WithRSAEncryption
        Issuer: C=BE, ST=LIEGE, O=Swilabus.com, OU=Trust Service, CN=Swilabus.com Trust MainCertificate - G1
        Validity
            Not Before: Feb 21 13:43:23 2024 GMT
            Not After : Feb 18 13:43:23 2034 GMT
        Subject: C=BE, ST=LIEGE, O=Swilabus.com, OU=Trust Service, CN=Swilabus.com Trust MainCertificate - G1
        Subject Public Key Info:
            Public Key Algorithm: rsaEncryption
                RSA Public-Key: (4096 bit)
                Modulus:
                    00:d1:03:99:31:f2:83:e8:02:8b:df:88:88:d4:e0:
                    59:f4:1b:78:9d:d5:ad:68:aa:bc:85:d6:09:e1:24:
                    4c:79:b8:dd:6b:bf:22:1b:bf:52:22:c6:e3:92:89:
                    e4:6d:b5:ee:3f:68:c6:22:96:93:10:8b:6a:4b:59:
                    27:2d:70:fa:29:6a:fc:b7:5a:3e:5f:af:d5:a8:e0:
                    74:ef:5f:11:fe:02:8c:73:51:f5:51:35:4d:35:58:
                    81:c6:6f:8b:3e:12:c7:07:ce:b3:1f:39:ac:a4:51:
                    17:a7:76:f9:5e:be:82:d1:1b:79:3c:55:9b:61:ff:
                    14:00:a4:fe:ff:9d:40:8e:38:fc:20:cd:96:c7:7b:
                    8d:15:c5:62:cb:b9:26:14:0d:fd:97:05:de:76:1a:
                    38:fe:96:a2:4c:31:bb:a3:08:66:ef:2d:82:bf:4e:
                    17:85:cf:e0:4d:26:fa:25:3d:3e:03:f0:01:c9:c5:
                    8c:73:5b:2a:ad:74:de:f7:76:04:f6:8c:48:83:33:
                    37:c1:3a:2e:f4:a7:02:47:07:8e:c3:b9:71:c5:ad:
                    4b:c0:d8:b6:e4:b4:4e:ed:d8:1f:b3:f8:8f:a0:f6:
                    6a:66:43:dd:b3:50:00:71:e0:8e:fb:7f:5f:8b:56:
                    0f:25:2c:79:71:bd:4c:20:12:64:50:e5:ba:4c:a6:
                    5f:78:f0:6f:c5:0c:ed:bc:8b:80:29:bf:8f:fb:56:
                    33:aa:65:3b:01:3c:de:d8:4d:a7:37:37:e2:0a:f8:
                    91:a7:44:7e:ce:49:f4:01:c1:35:4b:a4:2d:62:c0:
                    51:c8:8c:36:f6:2d:19:9d:d3:1a:5f:64:8d:ce:82:
                    30:43:df:38:f1:11:aa:43:3d:a0:19:5e:dc:e9:e2:
                    8c:eb:57:42:f0:14:db:cb:48:c0:fe:0c:bd:3f:fa:
                    a4:43:77:32:4f:8b:52:46:90:35:d3:3d:40:53:8d:
                    1b:08:3d:84:bb:ea:38:26:37:f9:15:70:1a:1e:2b:
                    95:4c:93:c7:27:a8:9f:79:bf:cc:b6:7b:36:49:f7:
                    84:06:37:cc:d3:8e:fc:3d:2e:69:c8:4a:71:24:5d:
                    e1:d8:a7:25:0c:d9:ba:5d:19:db:69:b1:43:e0:d4:
                    ed:22:7f:1b:80:29:c1:82:41:41:c1:b8:68:83:1e:
                    87:08:cf:7c:60:11:e2:b4:94:0d:c8:ff:d9:74:8a:
                    0e:2e:54:70:67:59:f1:ff:f1:17:a9:e6:00:39:61:
                    b8:f0:95:c9:42:09:ed:09:3a:9d:64:31:3a:55:0e:
                    e6:df:bb:24:df:59:5c:63:f8:2b:a8:66:d7:01:14:
                    3f:47:01:de:b4:a1:d5:29:38:14:bf:4c:0f:ab:aa:
                    72:34:2d
                Exponent: 65537 (0x10001)
        X509v3 extensions:
            X509v3 Subject Key Identifier: 
                24:CD:32:C3:CB:33:88:16:72:92:A1:20:D0:34:63:B3:AE:F9:09:1D
            X509v3 Authority Key Identifier: 
                keyid:24:CD:32:C3:CB:33:88:16:72:92:A1:20:D0:34:63:B3:AE:F9:09:1D

            X509v3 Basic Constraints: critical
                CA:TRUE
            X509v3 Key Usage: critical
                Digital Signature, Certificate Sign, CRL Sign
    Signature Algorithm: sha256WithRSAEncryption
         27:63:ae:82:01:9d:37:89:3c:b2:fd:82:ae:1e:73:fa:e9:60:
         b4:2e:d7:41:77:e7:d4:77:80:27:68:68:73:f9:4e:4d:b4:3e:
         08:7b:ce:2c:23:8a:d6:56:00:ec:97:4f:5d:90:e8:3e:e8:51:
         bb:cb:46:2a:13:12:a0:e8:80:e1:6f:d5:95:eb:bf:c6:a9:73:
         c3:80:56:1b:1e:ff:6a:fb:69:45:30:d0:5b:40:63:bf:eb:86:
         c2:c5:42:6f:16:55:87:4e:dc:7d:1a:64:d9:45:88:34:ad:bc:
         09:71:36:13:c5:b0:78:0d:ba:ac:62:53:c3:35:7c:b7:b3:53:
         3f:18:35:0c:61:e2:09:71:ad:42:c7:ef:af:62:da:91:a4:f0:
         ec:f2:cc:3d:c9:91:39:07:d6:dc:f0:07:dd:26:66:68:e1:3b:
         23:52:4d:13:84:ff:df:f3:f3:07:4b:3a:cb:8f:71:34:b2:92:
         19:9d:ec:18:d8:0b:8b:93:c4:75:cf:9c:90:9f:4a:2e:d1:9c:
         4b:4c:26:0c:ba:c4:be:dd:b5:15:46:24:d3:8c:d4:a2:4c:93:
         43:69:79:be:4e:59:a2:38:b4:6f:df:fb:35:89:ca:fb:d2:2e:
         29:b8:c8:d5:55:9f:87:50:83:19:50:16:ad:65:43:16:cd:12:
         02:db:13:c1:c0:97:e9:67:c9:77:d1:0f:91:c6:49:8f:48:04:
         dc:50:ae:c4:f8:0c:a4:a6:14:2c:69:13:1e:5b:c5:2a:34:86:
         09:2f:fd:cd:07:33:3d:38:e9:0b:3b:89:1a:c0:11:72:d0:de:
         be:e2:d7:32:88:c7:37:1e:4c:62:dd:2c:90:b5:c8:0f:f8:20:
         ac:13:83:24:7f:e1:7f:e4:e5:7f:fd:e1:10:33:f2:9c:48:c9:
         18:90:9c:e7:ca:d3:2a:67:d8:94:72:f7:64:4b:ad:87:27:75:
         96:a3:39:77:19:89:63:ec:61:b6:fd:db:2e:f4:9b:41:2e:6c:
         2f:d6:2c:73:19:aa:15:71:00:24:35:b1:10:32:7b:16:09:df:
         d6:4d:61:52:99:64:a6:f9:3c:49:9e:69:53:ef:9e:35:80:51:
         cb:e1:f3:6b:75:ed:72:b3:85:5e:75:9e:af:7f:c2:dd:3e:df:
         fb:5f:50:04:85:7c:a4:ac:4a:62:e0:68:12:38:4f:76:d2:3d:
         e3:cd:0b:b6:93:5d:8a:a2:9f:6e:45:c3:bb:9c:51:be:4c:4c:
         20:ae:d1:6c:c3:02:59:4c:65:b3:c2:60:2d:be:9d:d3:21:f2:
         76:c5:85:19:e4:63:ec:4e:27:ea:c4:92:65:bc:a6:4e:9d:72:
         a7:b0:d0:2c:07:dc:d6:c8
-----BEGIN CERTIFICATE-----
MIIF7TCCA9WgAwIBAgIUZlVEMyIR/+7dzLuqTnVL7doAAAAwDQYJKoZIhvcNAQEL
BQAwfjELMAkGA1UEBhMCQkUxDjAMBgNVBAgMBUxJRUdFMRUwEwYDVQQKDAxTd2ls
YWJ1cy5jb20xFjAUBgNVBAsMDVRydXN0IFNlcnZpY2UxMDAuBgNVBAMMJ1N3aWxh
YnVzLmNvbSBUcnVzdCBNYWluQ2VydGlmaWNhdGUgLSBHMTAeFw0yNDAyMjExMzQz
MjNaFw0zNDAyMTgxMzQzMjNaMH4xCzAJBgNVBAYTAkJFMQ4wDAYDVQQIDAVMSUVH
RTEVMBMGA1UECgwMU3dpbGFidXMuY29tMRYwFAYDVQQLDA1UcnVzdCBTZXJ2aWNl
MTAwLgYDVQQDDCdTd2lsYWJ1cy5jb20gVHJ1c3QgTWFpbkNlcnRpZmljYXRlIC0g
RzEwggIiMA0GCSqGSIb3DQEBAQUAA4ICDwAwggIKAoICAQDRA5kx8oPoAovfiIjU
4Fn0G3id1a1oqryF1gnhJEx5uN1rvyIbv1IixuOSieRtte4/aMYilpMQi2pLWSct
cPopavy3Wj5fr9Wo4HTvXxH+AoxzUfVRNU01WIHGb4s+EscHzrMfOaykURendvle
voLRG3k8VZth/xQApP7/nUCOOPwgzZbHe40VxWLLuSYUDf2XBd52Gjj+lqJMMbuj
CGbvLYK/TheFz+BNJvolPT4D8AHJxYxzWyqtdN73dgT2jEiDMzfBOi70pwJHB47D
uXHFrUvA2LbktE7t2B+z+I+g9mpmQ92zUABx4I77f1+LVg8lLHlxvUwgEmRQ5bpM
pl948G/FDO28i4Apv4/7VjOqZTsBPN7YTac3N+IK+JGnRH7OSfQBwTVLpC1iwFHI
jDb2LRmd0xpfZI3OgjBD3zjxEapDPaAZXtzp4ozrV0LwFNvLSMD+DL0/+qRDdzJP
i1JGkDXTPUBTjRsIPYS76jgmN/kVcBoeK5VMk8cnqJ95v8y2ezZJ94QGN8zTjvw9
LmnISnEkXeHYpyUM2bpdGdtpsUPg1O0ifxuAKcGCQUHBuGiDHocIz3xgEeK0lA3I
/9l0ig4uVHBnWfH/8Rep5gA5YbjwlclCCe0JOp1kMTpVDubfuyTfWVxj+CuoZtcB
FD9HAd60odUpOBS/TA+rqnI0LQIDAQABo2MwYTAdBgNVHQ4EFgQUJM0yw8sziBZy
kqEg0DRjs675CR0wHwYDVR0jBBgwFoAUJM0yw8sziBZykqEg0DRjs675CR0wDwYD
VR0TAQH/BAUwAwEB/zAOBgNVHQ8BAf8EBAMCAYYwDQYJKoZIhvcNAQELBQADggIB
ACdjroIBnTeJPLL9gq4ec/rpYLQu10F359R3gCdoaHP5Tk20Pgh7ziwjitZWAOyX
T12Q6D7oUbvLRioTEqDogOFv1ZXrv8apc8OAVhse/2r7aUUw0FtAY7/rhsLFQm8W
VYdO3H0aZNlFiDStvAlxNhPFsHgNuqxiU8M1fLezUz8YNQxh4glxrULH769i2pGk
8OzyzD3JkTkH1tzwB90mZmjhOyNSTROE/9/z8wdLOsuPcTSykhmd7BjYC4uTxHXP
nJCfSi7RnEtMJgy6xL7dtRVGJNOM1KJMk0Npeb5OWaI4tG/f+zWJyvvSLim4yNVV
n4dQgxlQFq1lQxbNEgLbE8HAl+lnyXfRD5HGSY9IBNxQrsT4DKSmFCxpEx5bxSo0
hgkv/c0HMz046Qs7iRrAEXLQ3r7i1zKIxzceTGLdLJC1yA/4IKwTgyR/4X/k5X/9
4RAz8pxIyRiQnOfK0ypn2JRy92RLrYcndZajOXcZiWPsYbb92y70m0EubC/WLHMZ
qhVxACQ1sRAyexYJ39ZNYVKZZKb5PEmeaVPvnjWAUcvh82t17XKzhV51nq9/wt0+
3/tfUASFfKSsSmLgaBI4T3bSPePNC7aTXYqin25Fw7ucUb5MTCCu0WzDAllMZbPC
YC2+ndMh8nbFhRnkY+xOJ+rEkmW8pk6dcqew0CwH3NbI
-----END CERTIFICATE-----
