Certificate:
    Data:
        Version: 3 (0x2)
        Serial Number:
            66:55:44:33:22:11:ff:ee:dd:cc:bb:aa:4e:75:4b:ed:da:00:00:01
        Signature Algorithm: sha256WithRSAEncryption
        Issuer: C=BE, ST=LIEGE, O=Swilabus.com, OU=Trust Service, CN=Swilabus.com Trust MainCertificate - G1
        Validity
            Not Before: Feb 21 13:47:52 2024 GMT
            Not After : Dec 30 13:47:52 2033 GMT
        Subject: C=BE, ST=LIEGE, L=LIEGE, O=Swilabus.com, OU=Trust Service, CN=Swilabus.com Intermediate - G21
        Subject Public Key Info:
            Public Key Algorithm: rsaEncryption
                RSA Public-Key: (4096 bit)
                Modulus:
                    00:d4:80:8e:2c:a6:67:82:be:06:c7:03:77:18:2d:
                    97:d7:4c:22:6b:e0:00:0e:6f:b5:c6:7f:c5:57:ae:
                    ca:25:6f:4c:f3:c8:8d:84:98:63:e1:10:76:fe:c3:
                    a1:b7:fe:17:1f:61:77:7b:ad:fe:2d:80:92:ce:40:
                    b0:ff:aa:71:e2:63:53:09:0f:92:ef:a7:ea:8e:7c:
                    f4:69:62:84:e1:64:b5:4c:98:3a:02:7e:5f:58:8f:
                    68:2a:18:74:ed:64:e1:90:88:5d:9b:fe:81:6d:8c:
                    e8:d9:b0:80:af:f8:9b:d3:8b:3a:31:38:ca:68:36:
                    c5:bb:31:f1:4a:8c:77:23:2c:4a:fc:bb:33:32:07:
                    51:07:06:82:3b:c6:fd:ab:0d:26:f9:d8:62:c6:6c:
                    ae:ce:02:0a:0b:32:8a:be:79:49:97:45:45:5e:18:
                    7c:77:cd:c3:d9:6c:03:29:0e:63:26:69:dc:bf:c2:
                    8e:b5:1d:73:24:c0:16:f7:4c:f0:f9:0d:a2:1d:7d:
                    aa:8f:37:f9:a0:35:e5:2c:fe:f8:8f:6f:42:27:ea:
                    0d:ad:0c:a5:51:d1:49:53:28:9c:bb:43:f8:03:8e:
                    9a:f8:22:32:25:1b:14:6e:a0:16:7b:9d:d7:61:6a:
                    ff:48:19:ee:16:a3:75:90:9e:8e:d1:99:a2:77:84:
                    56:6c:4b:75:9b:20:2a:54:f5:2b:3a:d4:31:cb:8a:
                    f5:2f:02:f1:0a:10:76:ec:96:79:04:09:a6:ee:78:
                    0a:c9:50:40:d3:79:4f:45:14:c0:9e:12:2b:b2:c4:
                    d0:3e:59:90:f8:74:6d:b6:a9:d4:9d:e1:4b:8b:e5:
                    95:c9:27:35:22:a8:bf:70:9d:c3:7e:12:89:56:33:
                    b9:95:3a:dc:c7:6a:ff:c6:0f:20:56:f4:5a:72:c1:
                    07:2b:83:a6:b8:ef:78:45:e0:bb:f0:38:6f:cd:f3:
                    65:97:b0:2a:44:46:a3:a2:6c:07:20:11:c6:bd:3b:
                    dd:a9:61:3c:d1:fb:8a:ee:55:4c:e1:18:6d:fe:2b:
                    e6:b7:4c:04:16:5f:2f:72:1a:42:da:ad:95:29:53:
                    14:01:7e:4d:ea:89:8d:db:a0:45:8b:66:11:37:1d:
                    f8:d7:d0:f8:35:d7:22:5e:07:ed:00:73:4c:33:0d:
                    bc:b0:36:4c:c6:39:72:c6:16:c2:70:82:92:ec:e6:
                    0e:36:c8:c5:f1:24:ac:26:f8:c2:ec:77:9c:74:28:
                    d8:38:54:c2:83:41:2b:cb:c7:87:89:a8:80:5c:ce:
                    ff:6d:2c:8f:12:dc:db:21:67:85:10:46:04:cc:28:
                    47:64:7e:cc:4e:04:08:97:25:6e:0c:d4:4c:ef:2a:
                    86:8a:f7
                Exponent: 65537 (0x10001)
        X509v3 extensions:
            X509v3 Subject Key Identifier: 
                23:81:2A:C0:A6:B7:3D:9D:E3:A7:A2:A2:0D:F4:26:0F:92:46:46:FC
            X509v3 Authority Key Identifier: 
                keyid:24:CD:32:C3:CB:33:88:16:72:92:A1:20:D0:34:63:B3:AE:F9:09:1D

            X509v3 Basic Constraints: critical
                CA:TRUE
            X509v3 Key Usage: critical
                Digital Signature, Certificate Sign, CRL Sign
    Signature Algorithm: sha256WithRSAEncryption
         14:92:83:81:e2:e1:65:ce:f7:be:c4:6a:e5:9a:af:12:40:29:
         16:6f:dc:8c:f1:7c:7c:40:40:54:05:47:96:d1:e2:f2:24:b3:
         19:15:bf:80:54:36:1f:e5:15:fb:65:29:67:87:51:ea:ac:ad:
         71:46:a2:dc:8b:c4:ab:57:27:3e:a0:d3:bf:02:c7:3e:34:be:
         4c:22:64:43:78:02:47:cd:d8:90:ca:91:9b:26:bb:94:c5:01:
         a4:b1:69:be:97:2b:48:53:c3:f4:02:09:f9:06:58:e1:b1:d1:
         7e:d1:da:94:08:87:20:08:c7:bf:19:95:a6:20:10:e5:5a:1d:
         72:4b:04:15:d9:20:0f:a3:91:d4:65:74:a5:49:63:57:c0:d6:
         39:4d:f1:7e:5c:fe:e5:d8:d3:b6:1e:a0:5b:9e:04:a4:3b:3b:
         6b:25:13:4f:d9:43:92:13:40:9b:3c:89:ec:81:ce:94:b4:20:
         3a:86:6c:c9:9f:f9:ab:fe:04:44:8a:e2:e1:85:08:3e:a9:4b:
         00:7f:e1:3d:5a:d4:23:d0:b6:6d:41:fd:e4:18:65:be:99:ab:
         d5:55:a3:fc:b7:fd:d7:40:54:98:7a:59:5b:ff:bf:5e:fc:f8:
         aa:17:89:4e:4e:f4:d7:7a:f3:b3:76:bb:85:66:76:f6:d7:dc:
         7d:8c:55:87:90:32:56:89:19:0d:35:89:94:63:7a:f1:53:81:
         86:a5:33:d7:cb:21:cc:29:02:3b:59:5c:a8:54:a7:c5:da:16:
         f2:2c:db:77:26:e8:e7:64:fa:81:80:2f:2f:5f:68:ed:47:1d:
         b5:96:db:f3:ab:2c:ab:38:34:c6:e6:45:3d:4c:72:6c:47:1b:
         0a:c1:ed:aa:bc:d5:cd:7b:10:cd:44:55:d0:7d:f6:60:9a:f5:
         e3:ce:d2:5e:df:47:19:c7:c7:79:85:20:18:bf:91:0f:e2:89:
         50:63:08:09:3c:65:f5:9d:87:74:e4:f9:2d:09:1c:4e:e6:8c:
         27:4d:00:38:1e:b2:fa:ee:6b:8b:7c:cc:39:ff:99:d9:e5:18:
         4b:88:75:c9:45:42:31:f8:01:23:32:46:69:56:44:81:c1:19:
         02:92:69:05:99:d6:47:64:33:ad:2e:51:01:bb:49:89:a0:08:
         8b:b3:aa:6b:26:42:40:4a:40:ac:4c:f5:a8:1a:9b:da:a0:6d:
         08:d7:04:b1:04:ef:2d:7d:96:c8:a0:be:f4:4c:4d:4a:0f:c9:
         94:90:52:12:98:18:09:89:27:eb:82:d0:ae:5a:b8:fd:4e:06:
         5a:69:41:1e:ab:05:8d:10:02:98:59:eb:77:97:06:6c:33:e2:
         e1:36:94:eb:a6:30:b7:77
-----BEGIN CERTIFICATE-----
MIIF9jCCA96gAwIBAgIUZlVEMyIR/+7dzLuqTnVL7doAAAEwDQYJKoZIhvcNAQEL
BQAwfjELMAkGA1UEBhMCQkUxDjAMBgNVBAgMBUxJRUdFMRUwEwYDVQQKDAxTd2ls
YWJ1cy5jb20xFjAUBgNVBAsMDVRydXN0IFNlcnZpY2UxMDAuBgNVBAMMJ1N3aWxh
YnVzLmNvbSBUcnVzdCBNYWluQ2VydGlmaWNhdGUgLSBHMTAeFw0yNDAyMjExMzQ3
NTJaFw0zMzEyMzAxMzQ3NTJaMIGGMQswCQYDVQQGEwJCRTEOMAwGA1UECAwFTElF
R0UxDjAMBgNVBAcMBUxJRUdFMRUwEwYDVQQKDAxTd2lsYWJ1cy5jb20xFjAUBgNV
BAsMDVRydXN0IFNlcnZpY2UxKDAmBgNVBAMMH1N3aWxhYnVzLmNvbSBJbnRlcm1l
ZGlhdGUgLSBHMjEwggIiMA0GCSqGSIb3DQEBAQUAA4ICDwAwggIKAoICAQDUgI4s
pmeCvgbHA3cYLZfXTCJr4AAOb7XGf8VXrsolb0zzyI2EmGPhEHb+w6G3/hcfYXd7
rf4tgJLOQLD/qnHiY1MJD5Lvp+qOfPRpYoThZLVMmDoCfl9Yj2gqGHTtZOGQiF2b
/oFtjOjZsICv+JvTizoxOMpoNsW7MfFKjHcjLEr8uzMyB1EHBoI7xv2rDSb52GLG
bK7OAgoLMoq+eUmXRUVeGHx3zcPZbAMpDmMmady/wo61HXMkwBb3TPD5DaIdfaqP
N/mgNeUs/viPb0In6g2tDKVR0UlTKJy7Q/gDjpr4IjIlGxRuoBZ7nddhav9IGe4W
o3WQno7RmaJ3hFZsS3WbICpU9Ss61DHLivUvAvEKEHbslnkECabueArJUEDTeU9F
FMCeEiuyxNA+WZD4dG22qdSd4UuL5ZXJJzUiqL9wncN+EolWM7mVOtzHav/GDyBW
9FpywQcrg6a473hF4LvwOG/N82WXsCpERqOibAcgEca9O92pYTzR+4ruVUzhGG3+
K+a3TAQWXy9yGkLarZUpUxQBfk3qiY3boEWLZhE3HfjX0Pg11yJeB+0Ac0wzDbyw
NkzGOXLGFsJwgpLs5g42yMXxJKwm+MLsd5x0KNg4VMKDQSvLx4eJqIBczv9tLI8S
3NshZ4UQRgTMKEdkfsxOBAiXJW4M1EzvKoaK9wIDAQABo2MwYTAdBgNVHQ4EFgQU
I4EqwKa3PZ3jp6KiDfQmD5JGRvwwHwYDVR0jBBgwFoAUJM0yw8sziBZykqEg0DRj
s675CR0wDwYDVR0TAQH/BAUwAwEB/zAOBgNVHQ8BAf8EBAMCAYYwDQYJKoZIhvcN
AQELBQADggIBABSSg4Hi4WXO977EauWarxJAKRZv3IzxfHxAQFQFR5bR4vIksxkV
v4BUNh/lFftlKWeHUeqsrXFGotyLxKtXJz6g078Cxz40vkwiZEN4AkfN2JDKkZsm
u5TFAaSxab6XK0hTw/QCCfkGWOGx0X7R2pQIhyAIx78ZlaYgEOVaHXJLBBXZIA+j
kdRldKVJY1fA1jlN8X5c/uXY07YeoFueBKQ7O2slE0/ZQ5ITQJs8ieyBzpS0IDqG
bMmf+av+BESK4uGFCD6pSwB/4T1a1CPQtm1B/eQYZb6Zq9VVo/y3/ddAVJh6WVv/
v178+KoXiU5O9Nd687N2u4VmdvbX3H2MVYeQMlaJGQ01iZRjevFTgYalM9fLIcwp
AjtZXKhUp8XaFvIs23cm6Odk+oGALy9faO1HHbWW2/OrLKs4NMbmRT1McmxHGwrB
7aq81c17EM1EVdB99mCa9ePO0l7fRxnHx3mFIBi/kQ/iiVBjCAk8ZfWdh3Tk+S0J
HE7mjCdNADgesvrua4t8zDn/mdnlGEuIdclFQjH4ASMyRmlWRIHBGQKSaQWZ1kdk
M60uUQG7SYmgCIuzqmsmQkBKQKxM9agam9qgbQjXBLEE7y19lsigvvRMTUoPyZSQ
UhKYGAmJJ+uC0K5auP1OBlppQR6rBY0QAphZ63eXBmwz4uE2lOumMLd3
-----END CERTIFICATE-----
